target datalayout = "e-m:e-p270:32:32-p271:32:32-p272:64:64-i64:64-i128:128-f80:128-n8:16:32:64-S128"
target triple = "x86_64-pc-linux-gnu"

; Function Attrs: mustprogress nounwind uwtable
define noundef nonnull align 8 dereferenceable(40) ptr @_ZNK7glslang13TIntermSymbol13getAccessNameB5cxx11Ev(ptr noundef nonnull align 8 dereferenceable(264) %0) unnamed_addr #0 align 2 {
  %2 = alloca ptr, align 8
  %3 = alloca ptr, align 8
  store ptr %0, ptr %3, align 8
  %4 = load ptr, ptr %3, align 8
  %5 = load ptr, ptr %4, align 8
  %6 = getelementptr inbounds ptr, ptr %5, i64 32
  %7 = load ptr, ptr %6, align 8
  %8 = call noundef i32 %7(ptr noundef nonnull align 8 dereferenceable(184) %4)
  %9 = icmp eq i32 %8, 16
  br i1 %9, label %10, label %19

10:                                               ; preds = %1
  %11 = load ptr, ptr %4, align 8
  %12 = getelementptr inbounds ptr, ptr %11, i64 30
  %13 = load ptr, ptr %12, align 8
  %14 = call noundef nonnull align 8 dereferenceable(152) ptr %13(ptr noundef nonnull align 8 dereferenceable(184) %4)
  %15 = load ptr, ptr %14, align 8
  %16 = getelementptr inbounds ptr, ptr %15, i64 5
  %17 = load ptr, ptr %16, align 8
  %18 = call noundef nonnull align 8 dereferenceable(40) ptr %17(ptr noundef nonnull align 8 dereferenceable(152) %14)
  store ptr %18, ptr %2, align 8
  br label %24

19:                                               ; preds = %1
  %20 = load ptr, ptr %4, align 8
  %21 = getelementptr inbounds ptr, ptr %20, i64 50
  %22 = load ptr, ptr %21, align 8
  %23 = call noundef nonnull align 8 dereferenceable(40) ptr %22(ptr noundef nonnull align 8 dereferenceable(264) %4)
  store ptr %23, ptr %2, align 8
  br label %24

24:                                               ; preds = %19, %10
  %25 = load ptr, ptr %2, align 8
  ret ptr %25
}