; Function Attrs: mustprogress nounwind uwtable
define noundef nonnull align 8 dereferenceable(40) ptr @_ZNK7glslang13TIntermSymbol13getAccessNameB5cxx11Ev(ptr noundef nonnull align 8 dereferenceable(264) %0) unnamed_addr #1 align 2 {
  %2 = load ptr, ptr %0, align 8
  %3 = getelementptr inbounds i8, ptr %2, i64 256
  %4 = load ptr, ptr %3, align 8
  %5 = tail call noundef i32 %4(ptr noundef nonnull align 8 dereferenceable(184) %0) #7
  %6 = icmp eq i32 %5, 16
  %7 = load ptr, ptr %0, align 8
  br i1 %6, label %8, label %16

8:                                                ; preds = %1
  %9 = getelementptr inbounds i8, ptr %7, i64 240
  %10 = load ptr, ptr %9, align 8
  %11 = tail call noundef nonnull align 8 dereferenceable(152) ptr %10(ptr noundef nonnull align 8 dereferenceable(184) %0) #7
  %12 = load ptr, ptr %11, align 8
  %13 = getelementptr inbounds i8, ptr %12, i64 40
  %14 = load ptr, ptr %13, align 8
  %15 = tail call noundef nonnull align 8 dereferenceable(40) ptr %14(ptr noundef nonnull align 8 dereferenceable(152) %11) #7
  br label %20

16:                                               ; preds = %1
  %17 = getelementptr inbounds i8, ptr %7, i64 400
  %18 = load ptr, ptr %17, align 8
  %19 = tail call noundef nonnull align 8 dereferenceable(40) ptr %18(ptr noundef nonnull align 8 dereferenceable(264) %0) #7
  br label %20

20:                                               ; preds = %16, %8
  %.0 = phi ptr [ %15, %8 ], [ %19, %16 ]
  ret ptr %.0
}